; Function Attrs: mustprogress uwtable
define dso_local void @_ZN3net14QuicConnection15CancelAllAlarmsEv(ptr nocapture noundef nonnull readonly align 8 dereferenceable(3372) %this) local_unnamed_addr #0 align 2 {
entry:
  %ack_alarm_ = getelementptr inbounds i8, ptr %this, i64 2336
  %0 = load ptr, ptr %ack_alarm_, align 8
  %1 = ptrtoint ptr %0 to i64
  %and.i.i = and i64 %1, -2
  %2 = inttoptr i64 %and.i.i to ptr
  tail call void @_ZN3net9QuicAlarm6CancelEv(ptr noundef nonnull align 8 dereferenceable(24) %2)
  %ping_alarm_ = getelementptr inbounds i8, ptr %this, i64 2376
  %3 = load ptr, ptr %ping_alarm_, align 8
  %4 = ptrtoint ptr %3 to i64
  %and.i.i1 = and i64 %4, -2
  %5 = inttoptr i64 %and.i.i1 to ptr
  tail call void @_ZN3net9QuicAlarm6CancelEv(ptr noundef nonnull align 8 dereferenceable(24) %5)
  %resume_writes_alarm_ = getelementptr inbounds i8, ptr %this, i64 2360
  %6 = load ptr, ptr %resume_writes_alarm_, align 8
  %7 = ptrtoint ptr %6 to i64
  %and.i.i2 = and i64 %7, -2
  %8 = inttoptr i64 %and.i.i2 to ptr
  tail call void @_ZN3net9QuicAlarm6CancelEv(ptr noundef nonnull align 8 dereferenceable(24) %8)
  %retransmission_alarm_ = getelementptr inbounds i8, ptr %this, i64 2344
  %9 = load ptr, ptr %retransmission_alarm_, align 8
  %10 = ptrtoint ptr %9 to i64
  %and.i.i3 = and i64 %10, -2
  %11 = inttoptr i64 %and.i.i3 to ptr
  tail call void @_ZN3net9QuicAlarm6CancelEv(ptr noundef nonnull align 8 dereferenceable(24) %11)
  %send_alarm_ = getelementptr inbounds i8, ptr %this, i64 2352
  %12 = load ptr, ptr %send_alarm_, align 8
  %13 = ptrtoint ptr %12 to i64
  %and.i.i4 = and i64 %13, -2
  %14 = inttoptr i64 %and.i.i4 to ptr
  tail call void @_ZN3net9QuicAlarm6CancelEv(ptr noundef nonnull align 8 dereferenceable(24) %14)
  %timeout_alarm_ = getelementptr inbounds i8, ptr %this, i64 2368
  %15 = load ptr, ptr %timeout_alarm_, align 8
  %16 = ptrtoint ptr %15 to i64
  %and.i.i5 = and i64 %16, -2
  %17 = inttoptr i64 %and.i.i5 to ptr
  tail call void @_ZN3net9QuicAlarm6CancelEv(ptr noundef nonnull align 8 dereferenceable(24) %17)
  %mtu_discovery_alarm_ = getelementptr inbounds i8, ptr %this, i64 2384
  %18 = load ptr, ptr %mtu_discovery_alarm_, align 8
  %19 = ptrtoint ptr %18 to i64
  %and.i.i6 = and i64 %19, -2
  %20 = inttoptr i64 %and.i.i6 to ptr
  tail call void @_ZN3net9QuicAlarm6CancelEv(ptr noundef nonnull align 8 dereferenceable(24) %20)
  ret void
}